; Function Attrs: mustprogress uwtable
define void @_ZN5arrow2io16HdfsReadableFile5CloseEv(ptr noalias sret(%"class.arrow::Status") align 8 %agg.result, ptr nocapture noundef nonnull readonly align 8 dereferenceable(32) %this) unnamed_addr #0 align 2 {
entry:
  %impl_ = getelementptr inbounds i8, ptr %this, i64 24
  %0 = load ptr, ptr %impl_, align 8
  tail call void @llvm.experimental.noalias.scope.decl(metadata !10)
  %is_open_.i = getelementptr inbounds i8, ptr %0, i64 96
  %1 = load i8, ptr %is_open_.i, align 8, !noalias !10
  %2 = and i8 %1, 1
  %tobool.not.i = icmp eq i8 %2, 0
  br i1 %tobool.not.i, label %if.end5.i, label %if.then.i

if.then.i:                                        ; preds = %entry
  store i8 0, ptr %is_open_.i, align 8, !noalias !10
  %driver_.i = getelementptr inbounds i8, ptr %0, i64 32
  %3 = load ptr, ptr %driver_.i, align 8, !noalias !10
  %fs_.i = getelementptr inbounds i8, ptr %0, i64 80
  %4 = load ptr, ptr %fs_.i, align 8, !noalias !10
  %file_.i = getelementptr inbounds i8, ptr %0, i64 88
  %5 = load ptr, ptr %file_.i, align 8, !noalias !10
  %call.i = tail call noundef i32 @_ZN5arrow2io8internal11LibHdfsShim9CloseFileEP13hdfs_internalP17hdfsFile_internal(ptr noundef nonnull align 8 dereferenceable(312) %3, ptr noundef %4, ptr noundef %5), !noalias !10
  %cmp.i = icmp eq i32 %call.i, -1
  br i1 %cmp.i, label %if.then3.i, label %if.end5.i

if.then3.i:                                       ; preds = %if.then.i
  %call4.i = tail call ptr @__errno_location() #23
  %6 = load i32, ptr %call4.i, align 4, !noalias !10
  tail call void @_ZN5arrow8internal15StatusFromErrnoIJRA6_KcRA10_S2_RA8_S2_EEENS_6StatusEiNS_10StatusCodeEDpOT_(ptr sret(%"class.arrow::Status") align 8 %agg.result, i32 noundef %6, i8 noundef signext 5, ptr noundef nonnull align 1 dereferenceable(6) @.str.2, ptr noundef nonnull align 1 dereferenceable(10) @.str.3, ptr noundef nonnull align 1 dereferenceable(8) @.str.4)
  br label %_ZN5arrow2io16HdfsReadableFile20HdfsReadableFileImpl5CloseEv.exit

if.end5.i:                                        ; preds = %if.then.i, %entry
  store ptr null, ptr %agg.result, align 8, !alias.scope !13
  br label %_ZN5arrow2io16HdfsReadableFile20HdfsReadableFileImpl5CloseEv.exit

_ZN5arrow2io16HdfsReadableFile20HdfsReadableFileImpl5CloseEv.exit: ; preds = %if.then3.i, %if.end5.i
  ret void
}